; Function Attrs: nounwind uwtable
define internal fastcc i32 @r_step3(ptr noundef initializes((24, 28)) %0) unnamed_addr #0 {
  %2 = getelementptr inbounds nuw i8, ptr %0, i64 8
  %3 = load i32, ptr %2, align 8
  %4 = getelementptr inbounds nuw i8, ptr %0, i64 24
  store i32 %3, ptr %4, align 8
  %5 = tail call i32 @find_among_b(ptr noundef %0, ptr noundef nonnull @a_32, i32 noundef 3) #2
  %.not = icmp eq i32 %5, 0
  br i1 %.not, label %19, label %6

6:                                                ; preds = %1
  %7 = load i32, ptr %2, align 8
  %8 = getelementptr inbounds nuw i8, ptr %0, i64 20
  store i32 %7, ptr %8, align 4
  %9 = tail call i32 @slice_del(ptr noundef nonnull %0) #2
  %10 = icmp sgt i32 %9, -1
  br i1 %10, label %11, label %19

11:                                               ; preds = %6
  %12 = getelementptr inbounds nuw i8, ptr %0, i64 40
  %13 = load ptr, ptr %12, align 8
  store i32 0, ptr %13, align 4
  %14 = load i32, ptr %2, align 8
  store i32 %14, ptr %4, align 8
  store i32 %14, ptr %8, align 4
  %15 = tail call i32 @in_grouping_b_U(ptr noundef nonnull %0, ptr noundef nonnull @g_v, i32 noundef 945, i32 noundef 969, i32 noundef 0) #2
  %.not22 = icmp eq i32 %15, 0
  br i1 %.not22, label %16, label %19

16:                                               ; preds = %11
  %17 = tail call i32 @slice_from_s(ptr noundef nonnull %0, i32 noundef 2, ptr noundef nonnull @s_69) #2
  %18 = icmp sgt i32 %17, -1
  %spec.select = select i1 %18, i32 1, i32 %17
  br label %19

19:                                               ; preds = %16, %6, %11, %1
  %.0 = phi i32 [ %9, %6 ], [ 0, %1 ], [ 0, %11 ], [ %spec.select, %16 ]
  ret i32 %.0
}